; Function Attrs: mustprogress uwtable
define hidden void @_ZN19maximize_ac_sharing6insertEP9func_declP4exprS3_(ptr noundef nonnull align 8 dereferenceable(112) %this, ptr noundef %f, ptr noundef %arg1, ptr noundef %arg2) local_unnamed_addr #3 align 2 personality ptr @__gxx_personality_v0 {
entry:
  %tmp.i = alloca ptr, align 8
  %m_region = getelementptr inbounds i8, ptr %this, i64 24
  %call.i = tail call noundef ptr @_ZN6region8allocateEm(ptr noundef nonnull align 8 dereferenceable(40) %m_region, i64 noundef 24)
  store ptr %f, ptr %call.i, align 8
  %m_arg1.i = getelementptr inbounds i8, ptr %call.i, i64 8
  store ptr %arg1, ptr %m_arg1.i, align 8
  %m_arg2.i = getelementptr inbounds i8, ptr %call.i, i64 16
  store ptr %arg2, ptr %m_arg2.i, align 8
  %tobool.i = icmp ne ptr %arg1, null
  %tobool2.i = icmp ne ptr %arg2, null
  %or.cond.i = and i1 %tobool.i, %tobool2.i
  br i1 %or.cond.i, label %land.lhs.true3.i, label %invoke.cont

land.lhs.true3.i:                                 ; preds = %entry
  %0 = load i32, ptr %arg1, align 4
  %1 = load i32, ptr %arg2, align 4
  %cmp.i = icmp ugt i32 %0, %1
  br i1 %cmp.i, label %if.then.i, label %invoke.cont

if.then.i:                                        ; preds = %land.lhs.true3.i
  store ptr %arg2, ptr %m_arg1.i, align 8
  store ptr %arg1, ptr %m_arg2.i, align 8
  br label %invoke.cont

invoke.cont:                                      ; preds = %if.then.i, %land.lhs.true3.i, %entry
  %m_entries = getelementptr inbounds i8, ptr %this, i64 88
  %2 = load ptr, ptr %m_entries, align 8
  %cmp.i3 = icmp eq ptr %2, null
  br i1 %cmp.i3, label %if.then.i4, label %lor.lhs.false.i

lor.lhs.false.i:                                  ; preds = %invoke.cont
  %arrayidx.i = getelementptr inbounds i8, ptr %2, i64 -4
  %3 = load i32, ptr %arrayidx.i, align 4
  %arrayidx4.i = getelementptr inbounds i8, ptr %2, i64 -8
  %4 = load i32, ptr %arrayidx4.i, align 4
  %cmp5.i = icmp eq i32 %3, %4
  br i1 %cmp5.i, label %if.then.i4, label %_ZN6vectorIPN19maximize_ac_sharing5entryELb0EjE9push_backERKS2_.exit

if.then.i4:                                       ; preds = %lor.lhs.false.i, %invoke.cont
  tail call void @_ZN6vectorIPN19maximize_ac_sharing5entryELb0EjE13expand_vectorEv(ptr noundef nonnull align 8 dereferenceable(8) %m_entries)
  %.pre.i = load ptr, ptr %m_entries, align 8
  %arrayidx8.phi.trans.insert.i = getelementptr inbounds i8, ptr %.pre.i, i64 -4
  %.pre1.i = load i32, ptr %arrayidx8.phi.trans.insert.i, align 4
  br label %_ZN6vectorIPN19maximize_ac_sharing5entryELb0EjE9push_backERKS2_.exit

_ZN6vectorIPN19maximize_ac_sharing5entryELb0EjE9push_backERKS2_.exit: ; preds = %lor.lhs.false.i, %if.then.i4
  %5 = phi i32 [ %.pre1.i, %if.then.i4 ], [ %3, %lor.lhs.false.i ]
  %6 = phi ptr [ %.pre.i, %if.then.i4 ], [ %2, %lor.lhs.false.i ]
  %idx.ext.i = zext i32 %5 to i64
  %add.ptr.i = getelementptr inbounds ptr, ptr %6, i64 %idx.ext.i
  store ptr %call.i, ptr %add.ptr.i, align 8
  %7 = load ptr, ptr %m_entries, align 8
  %arrayidx10.i = getelementptr inbounds i8, ptr %7, i64 -4
  %8 = load i32, ptr %arrayidx10.i, align 4
  %inc.i = add i32 %8, 1
  store i32 %inc.i, ptr %arrayidx10.i, align 4
  %m_cache = getelementptr inbounds i8, ptr %this, i64 64
  call void @llvm.lifetime.start.p0(i64 8, ptr nonnull %tmp.i)
  store ptr %call.i, ptr %tmp.i, align 8
  call void @_ZN14core_hashtableI14ptr_hash_entryIN19maximize_ac_sharing5entryEE12obj_ptr_hashIS2_E8deref_eqIS2_EE6insertEOPS2_(ptr noundef nonnull align 8 dereferenceable(20) %m_cache, ptr noundef nonnull align 8 dereferenceable(8) %tmp.i)
  call void @llvm.lifetime.end.p0(i64 8, ptr nonnull %tmp.i)
  %tobool.not.i = icmp eq ptr %arg1, null
  br i1 %tobool.not.i, label %_ZN11ast_manager7inc_refEP3ast.exit, label %if.then.i5

if.then.i5:                                       ; preds = %_ZN6vectorIPN19maximize_ac_sharing5entryELb0EjE9push_backERKS2_.exit
  %m_ref_count.i.i = getelementptr inbounds i8, ptr %arg1, i64 8
  %9 = load i32, ptr %m_ref_count.i.i, align 4
  %inc.i.i = add i32 %9, 1
  store i32 %inc.i.i, ptr %m_ref_count.i.i, align 4
  br label %_ZN11ast_manager7inc_refEP3ast.exit

_ZN11ast_manager7inc_refEP3ast.exit:              ; preds = %_ZN6vectorIPN19maximize_ac_sharing5entryELb0EjE9push_backERKS2_.exit, %if.then.i5
  %tobool.not.i6 = icmp eq ptr %arg2, null
  br i1 %tobool.not.i6, label %_ZN11ast_manager7inc_refEP3ast.exit10, label %if.then.i7

if.then.i7:                                       ; preds = %_ZN11ast_manager7inc_refEP3ast.exit
  %m_ref_count.i.i8 = getelementptr inbounds i8, ptr %arg2, i64 8
  %10 = load i32, ptr %m_ref_count.i.i8, align 4
  %inc.i.i9 = add i32 %10, 1
  store i32 %inc.i.i9, ptr %m_ref_count.i.i8, align 4
  br label %_ZN11ast_manager7inc_refEP3ast.exit10

_ZN11ast_manager7inc_refEP3ast.exit10:            ; preds = %_ZN11ast_manager7inc_refEP3ast.exit, %if.then.i7
  ret void
}